target datalayout = "e-m:e-p270:32:32-p271:32:32-p272:64:64-i64:64-i128:128-f80:128-n8:16:32:64-S128"
target triple = "x86_64-pc-linux-gnu"

%struct.Gia_ManBmc_t_ = type { ptr, ptr, ptr, ptr, ptr, ptr, ptr, ptr, ptr, ptr, ptr, ptr, ptr, i32, i32, i32, i32, i32, i32, i32, ptr, ptr, ptr, i32, i32, i32, ptr, ptr }

; Function Attrs: inlinehint nounwind uwtable
define internal i32 @lit_neg(i32 noundef %0) #5 {
  %2 = alloca i32, align 4
  store i32 %0, ptr %2, align 4, !tbaa !8
  %3 = load i32, ptr %2, align 4, !tbaa !8
  %4 = xor i32 %3, 1
  ret i32 %4
}

; Function Attrs: inlinehint nounwind uwtable
define internal void @Saig_ManBmcAddClauses(ptr noundef %0, i32 noundef %1, ptr noundef %2, i32 noundef %3) #5 {
  %5 = alloca ptr, align 8
  %6 = alloca i32, align 4
  %7 = alloca ptr, align 8
  %8 = alloca i32, align 4
  %9 = alloca i32, align 4
  %10 = alloca i32, align 4
  %11 = alloca i32, align 4
  %12 = alloca i32, align 4
  %13 = alloca i32, align 4
  %14 = alloca [5 x i32], align 16
  store ptr %0, ptr %5, align 8, !tbaa !87
  store i32 %1, ptr %6, align 4, !tbaa !8
  store ptr %2, ptr %7, align 8, !tbaa !12
  store i32 %3, ptr %8, align 4, !tbaa !8
  call void @llvm.lifetime.start.p0(i64 4, ptr %9) #11
  call void @llvm.lifetime.start.p0(i64 4, ptr %10) #11
  call void @llvm.lifetime.start.p0(i64 4, ptr %11) #11
  call void @llvm.lifetime.start.p0(i64 4, ptr %12) #11
  call void @llvm.lifetime.start.p0(i64 4, ptr %13) #11
  call void @llvm.lifetime.start.p0(i64 20, ptr %14) #11
  store i32 0, ptr %9, align 4, !tbaa !8
  br label %15

15:                                               ; preds = %151, %4
  %16 = load i32, ptr %9, align 4, !tbaa !8
  %17 = icmp slt i32 %16, 2
  br i1 %17, label %18, label %154

18:                                               ; preds = %15
  %19 = load i32, ptr %9, align 4, !tbaa !8
  %20 = icmp ne i32 %19, 0
  br i1 %20, label %21, label %25

21:                                               ; preds = %18
  %22 = load i32, ptr %6, align 4, !tbaa !8
  %23 = xor i32 %22, -1
  %24 = and i32 65535, %23
  store i32 %24, ptr %6, align 4, !tbaa !8
  br label %25

25:                                               ; preds = %21, %18
  store i32 0, ptr %10, align 4, !tbaa !8
  br label %26

26:                                               ; preds = %147, %25
  %27 = load i32, ptr %10, align 4, !tbaa !8
  %28 = load ptr, ptr %5, align 8, !tbaa !87
  %29 = getelementptr inbounds nuw %struct.Gia_ManBmc_t_, ptr %28, i32 0, i32 26
  %30 = load ptr, ptr %29, align 8, !tbaa !158
  %31 = load i32, ptr %6, align 4, !tbaa !8
  %32 = sext i32 %31 to i64
  %33 = getelementptr inbounds i8, ptr %30, i64 %32
  %34 = load i8, ptr %33, align 1, !tbaa !72
  %35 = sext i8 %34 to i32
  %36 = icmp slt i32 %27, %35
  br i1 %36, label %37, label %150

37:                                               ; preds = %26
  store i32 0, ptr %13, align 4, !tbaa !8
  %38 = load i32, ptr %9, align 4, !tbaa !8
  %39 = icmp ne i32 %38, 0
  br i1 %39, label %40, label %43

40:                                               ; preds = %37
  %41 = load i32, ptr %8, align 4, !tbaa !8
  %42 = call i32 @lit_neg(i32 noundef %41)
  br label %45

43:                                               ; preds = %37
  %44 = load i32, ptr %8, align 4, !tbaa !8
  br label %45

45:                                               ; preds = %43, %40
  %46 = phi i32 [ %42, %40 ], [ %44, %43 ]
  %47 = load i32, ptr %13, align 4, !tbaa !8
  %48 = add nsw i32 %47, 1
  store i32 %48, ptr %13, align 4, !tbaa !8
  %49 = sext i32 %47 to i64
  %50 = getelementptr inbounds [5 x i32], ptr %14, i64 0, i64 %49
  store i32 %46, ptr %50, align 4, !tbaa !8
  %51 = load ptr, ptr %5, align 8, !tbaa !87
  %52 = getelementptr inbounds nuw %struct.Gia_ManBmc_t_, ptr %51, i32 0, i32 27
  %53 = load ptr, ptr %52, align 8, !tbaa !159
  %54 = load i32, ptr %6, align 4, !tbaa !8
  %55 = sext i32 %54 to i64
  %56 = getelementptr inbounds ptr, ptr %53, i64 %55
  %57 = load ptr, ptr %56, align 8, !tbaa !50
  %58 = load i32, ptr %10, align 4, !tbaa !8
  %59 = sext i32 %58 to i64
  %60 = getelementptr inbounds i8, ptr %57, i64 %59
  %61 = load i8, ptr %60, align 1, !tbaa !72
  %62 = sext i8 %61 to i32
  store i32 %62, ptr %12, align 4, !tbaa !8
  store i32 3, ptr %11, align 4, !tbaa !8
  br label %63

63:                                               ; preds = %99, %45
  %64 = load i32, ptr %11, align 4, !tbaa !8
  %65 = icmp sge i32 %64, 0
  br i1 %65, label %66, label %102

66:                                               ; preds = %63
  %67 = load i32, ptr %12, align 4, !tbaa !8
  %68 = srem i32 %67, 3
  %69 = icmp eq i32 %68, 0
  br i1 %69, label %70, label %80

70:                                               ; preds = %66
  %71 = load ptr, ptr %7, align 8, !tbaa !12
  %72 = load i32, ptr %11, align 4, !tbaa !8
  %73 = sext i32 %72 to i64
  %74 = getelementptr inbounds i32, ptr %71, i64 %73
  %75 = load i32, ptr %74, align 4, !tbaa !8
  %76 = load i32, ptr %13, align 4, !tbaa !8
  %77 = add nsw i32 %76, 1
  store i32 %77, ptr %13, align 4, !tbaa !8
  %78 = sext i32 %76 to i64
  %79 = getelementptr inbounds [5 x i32], ptr %14, i64 0, i64 %78
  store i32 %75, ptr %79, align 4, !tbaa !8
  br label %96

80:                                               ; preds = %66
  %81 = load i32, ptr %12, align 4, !tbaa !8
  %82 = srem i32 %81, 3
  %83 = icmp eq i32 %82, 1
  br i1 %83, label %84, label %95

84:                                               ; preds = %80
  %85 = load ptr, ptr %7, align 8, !tbaa !12
  %86 = load i32, ptr %11, align 4, !tbaa !8
  %87 = sext i32 %86 to i64
  %88 = getelementptr inbounds i32, ptr %85, i64 %87
  %89 = load i32, ptr %88, align 4, !tbaa !8
  %90 = call i32 @lit_neg(i32 noundef %89)
  %91 = load i32, ptr %13, align 4, !tbaa !8
  %92 = add nsw i32 %91, 1
  store i32 %92, ptr %13, align 4, !tbaa !8
  %93 = sext i32 %91 to i64
  %94 = getelementptr inbounds [5 x i32], ptr %14, i64 0, i64 %93
  store i32 %90, ptr %94, align 4, !tbaa !8
  br label %95

95:                                               ; preds = %84, %80
  br label %96

96:                                               ; preds = %95, %70
  %97 = load i32, ptr %12, align 4, !tbaa !8
  %98 = sdiv i32 %97, 3
  store i32 %98, ptr %12, align 4, !tbaa !8
  br label %99

99:                                               ; preds = %96
  %100 = load i32, ptr %11, align 4, !tbaa !8
  %101 = add nsw i32 %100, -1
  store i32 %101, ptr %11, align 4, !tbaa !8
  br label %63, !llvm.loop !172

102:                                              ; preds = %63
  %103 = load ptr, ptr %5, align 8, !tbaa !87
  %104 = getelementptr inbounds nuw %struct.Gia_ManBmc_t_, ptr %103, i32 0, i32 21
  %105 = load ptr, ptr %104, align 8, !tbaa !112
  %106 = icmp ne ptr %105, null
  br i1 %106, label %107, label %117

107:                                              ; preds = %102
  %108 = load ptr, ptr %5, align 8, !tbaa !87
  %109 = getelementptr inbounds nuw %struct.Gia_ManBmc_t_, ptr %108, i32 0, i32 21
  %110 = load ptr, ptr %109, align 8, !tbaa !112
  %111 = getelementptr inbounds [5 x i32], ptr %14, i64 0, i64 0
  %112 = load i32, ptr %13, align 4, !tbaa !8
  %113 = call i32 @satoko_add_clause(ptr noundef %110, ptr noundef %111, i32 noundef %112)
  %114 = icmp ne i32 %113, 0
  br i1 %114, label %116, label %115

115:                                              ; preds = %107
  br label %116

116:                                              ; preds = %115, %107
  br label %146

117:                                              ; preds = %102
  %118 = load ptr, ptr %5, align 8, !tbaa !87
  %119 = getelementptr inbounds nuw %struct.Gia_ManBmc_t_, ptr %118, i32 0, i32 22
  %120 = load ptr, ptr %119, align 8, !tbaa !113
  %121 = icmp ne ptr %120, null
  br i1 %121, label %122, label %132

122:                                              ; preds = %117
  %123 = load ptr, ptr %5, align 8, !tbaa !87
  %124 = getelementptr inbounds nuw %struct.Gia_ManBmc_t_, ptr %123, i32 0, i32 22
  %125 = load ptr, ptr %124, align 8, !tbaa !113
  %126 = getelementptr inbounds [5 x i32], ptr %14, i64 0, i64 0
  %127 = load i32, ptr %13, align 4, !tbaa !8
  %128 = call i32 @bmcg_sat_solver_addclause(ptr noundef %125, ptr noundef %126, i32 noundef %127)
  %129 = icmp ne i32 %128, 0
  br i1 %129, label %131, label %130

130:                                              ; preds = %122
  br label %131

131:                                              ; preds = %130, %122
  br label %145

132:                                              ; preds = %117
  %133 = load ptr, ptr %5, align 8, !tbaa !87
  %134 = getelementptr inbounds nuw %struct.Gia_ManBmc_t_, ptr %133, i32 0, i32 20
  %135 = load ptr, ptr %134, align 8, !tbaa !115
  %136 = getelementptr inbounds [5 x i32], ptr %14, i64 0, i64 0
  %137 = getelementptr inbounds [5 x i32], ptr %14, i64 0, i64 0
  %138 = load i32, ptr %13, align 4, !tbaa !8
  %139 = sext i32 %138 to i64
  %140 = getelementptr inbounds i32, ptr %137, i64 %139
  %141 = call i32 @sat_solver_addclause(ptr noundef %135, ptr noundef %136, ptr noundef %140)
  %142 = icmp ne i32 %141, 0
  br i1 %142, label %144, label %143

143:                                              ; preds = %132
  br label %144

144:                                              ; preds = %143, %132
  br label %145

145:                                              ; preds = %144, %131
  br label %146

146:                                              ; preds = %145, %116
  br label %147

147:                                              ; preds = %146
  %148 = load i32, ptr %10, align 4, !tbaa !8
  %149 = add nsw i32 %148, 1
  store i32 %149, ptr %10, align 4, !tbaa !8
  br label %26, !llvm.loop !173

150:                                              ; preds = %26
  br label %151

151:                                              ; preds = %150
  %152 = load i32, ptr %9, align 4, !tbaa !8
  %153 = add nsw i32 %152, 1
  store i32 %153, ptr %9, align 4, !tbaa !8
  br label %15, !llvm.loop !174

154:                                              ; preds = %15
  call void @llvm.lifetime.end.p0(i64 20, ptr %14) #11
  call void @llvm.lifetime.end.p0(i64 4, ptr %13) #11
  call void @llvm.lifetime.end.p0(i64 4, ptr %12) #11
  call void @llvm.lifetime.end.p0(i64 4, ptr %11) #11
  call void @llvm.lifetime.end.p0(i64 4, ptr %10) #11
  call void @llvm.lifetime.end.p0(i64 4, ptr %9) #11
  ret void
}