; Function Attrs: inlinehint nounwind uwtable
define internal fastcc void @Saig_ManBmcAddClauses(ptr noundef readonly captures(none) %0, i32 noundef %1, ptr noundef nonnull readonly captures(none) %2, i32 noundef %3) unnamed_addr #8 {
  %5 = alloca [5 x i32], align 16
  call void @llvm.lifetime.start.p0(i64 20, ptr nonnull %5) #24
  %6 = getelementptr inbounds nuw i8, ptr %0, i64 176
  %7 = getelementptr inbounds nuw i8, ptr %0, i64 184
  %8 = getelementptr inbounds nuw i8, ptr %0, i64 144
  %9 = getelementptr inbounds nuw i8, ptr %0, i64 152
  %10 = getelementptr inbounds nuw i8, ptr %0, i64 136
  %.pre = load ptr, ptr %6, align 8, !tbaa !163
  %11 = and i32 %1, 65535
  %12 = xor i32 %11, 65535
  br label %13

13:                                               ; preds = %4, %._crit_edge
  %14 = phi ptr [ %.pre, %4 ], [ %59, %._crit_edge ]
  %.not.not = phi i1 [ true, %4 ], [ false, %._crit_edge ]
  %.03649 = phi i32 [ 0, %4 ], [ 1, %._crit_edge ]
  %.138 = select i1 %.not.not, i32 %1, i32 %12
  %15 = sext i32 %.138 to i64
  %16 = getelementptr inbounds i8, ptr %14, i64 %15
  %17 = load i8, ptr %16, align 1, !tbaa !51
  %18 = icmp sgt i8 %17, 0
  br i1 %18, label %.lr.ph, label %._crit_edge

.lr.ph:                                           ; preds = %13
  %spec.select = xor i32 %.03649, %3
  br label %19

19:                                               ; preds = %.lr.ph, %53
  %indvars.iv51 = phi i64 [ 0, %.lr.ph ], [ %indvars.iv.next52, %53 ]
  store i32 %spec.select, ptr %5, align 16, !tbaa !28
  %20 = load ptr, ptr %7, align 8, !tbaa !164
  %21 = getelementptr inbounds ptr, ptr %20, i64 %15
  %22 = load ptr, ptr %21, align 8, !tbaa !74
  %23 = getelementptr inbounds nuw i8, ptr %22, i64 %indvars.iv51
  %24 = load i8, ptr %23, align 1, !tbaa !51
  %25 = sext i8 %24 to i32
  br label %26

26:                                               ; preds = %19, %39
  %indvars.iv = phi i64 [ 3, %19 ], [ %indvars.iv.next, %39 ]
  %.046 = phi i32 [ 1, %19 ], [ %.1, %39 ]
  %.03345 = phi i32 [ %25, %19 ], [ %28, %39 ]
  %27 = srem i32 %.03345, 3
  %28 = sdiv i32 %.03345, 3
  switch i32 %27, label %39 [
    i32 0, label %29
    i32 1, label %32
  ]

29:                                               ; preds = %26
  %30 = getelementptr inbounds nuw i32, ptr %2, i64 %indvars.iv
  %31 = load i32, ptr %30, align 4, !tbaa !28
  br label %.sink.split

32:                                               ; preds = %26
  %33 = getelementptr inbounds nuw i32, ptr %2, i64 %indvars.iv
  %34 = load i32, ptr %33, align 4, !tbaa !28
  %35 = xor i32 %34, 1
  br label %.sink.split

.sink.split:                                      ; preds = %29, %32
  %.sink = phi i32 [ %35, %32 ], [ %31, %29 ]
  %36 = add nsw i32 %.046, 1
  %37 = sext i32 %.046 to i64
  %38 = getelementptr inbounds [5 x i32], ptr %5, i64 0, i64 %37
  store i32 %.sink, ptr %38, align 4, !tbaa !28
  br label %39

39:                                               ; preds = %.sink.split, %26
  %.1 = phi i32 [ %.046, %26 ], [ %36, %.sink.split ]
  %indvars.iv.next = add nsw i64 %indvars.iv, -1
  %.not = icmp eq i64 %indvars.iv, 0
  br i1 %.not, label %40, label %26, !llvm.loop !175

40:                                               ; preds = %39
  %41 = load ptr, ptr %8, align 8, !tbaa !114
  %.not42 = icmp eq ptr %41, null
  br i1 %.not42, label %44, label %42

42:                                               ; preds = %40
  %43 = call i32 @satoko_add_clause(ptr noundef nonnull %41, ptr noundef nonnull %5, i32 noundef %.1) #24
  br label %53

44:                                               ; preds = %40
  %45 = load ptr, ptr %9, align 8, !tbaa !115
  %.not43 = icmp eq ptr %45, null
  br i1 %.not43, label %48, label %46

46:                                               ; preds = %44
  %47 = call i32 @bmcg_sat_solver_addclause(ptr noundef nonnull %45, ptr noundef nonnull %5, i32 noundef %.1) #24
  br label %53

48:                                               ; preds = %44
  %49 = load ptr, ptr %10, align 8, !tbaa !117
  %50 = sext i32 %.1 to i64
  %51 = getelementptr inbounds i32, ptr %5, i64 %50
  %52 = call i32 @sat_solver_addclause(ptr noundef %49, ptr noundef nonnull %5, ptr noundef nonnull %51) #24
  br label %53

53:                                               ; preds = %42, %48, %46
  %indvars.iv.next52 = add nuw nsw i64 %indvars.iv51, 1
  %54 = load ptr, ptr %6, align 8, !tbaa !163
  %55 = getelementptr inbounds i8, ptr %54, i64 %15
  %56 = load i8, ptr %55, align 1, !tbaa !51
  %57 = sext i8 %56 to i64
  %58 = icmp slt i64 %indvars.iv.next52, %57
  br i1 %58, label %19, label %._crit_edge, !llvm.loop !176

._crit_edge:                                      ; preds = %53, %13
  %59 = phi ptr [ %14, %13 ], [ %54, %53 ]
  br i1 %.not.not, label %13, label %60, !llvm.loop !177

60:                                               ; preds = %._crit_edge
  call void @llvm.lifetime.end.p0(i64 20, ptr nonnull %5) #24
  ret void
}